; Function Attrs: nounwind uwtable
define range(i32 0, 2) i32 @ssl3_init_finished_mac(ptr noundef %0) local_unnamed_addr #0 {
  %2 = tail call ptr @BIO_s_mem() #8
  %3 = tail call ptr @BIO_new(ptr noundef %2) #8
  %4 = icmp eq ptr %3, null
  br i1 %4, label %5, label %6

5:                                                ; preds = %1
  tail call void @ERR_new() #8
  tail call void @ERR_set_debug(ptr noundef nonnull @.str, i32 noundef 226, ptr noundef nonnull @__func__.ssl3_init_finished_mac) #8
  tail call void (ptr, i32, i32, ptr, ...) @ossl_statem_fatal(ptr noundef %0, i32 noundef 80, i32 noundef 524320, ptr noundef null) #8
  br label %13

6:                                                ; preds = %1
  %7 = getelementptr inbounds nuw i8, ptr %0, i64 424
  %8 = load ptr, ptr %7, align 8, !tbaa !100
  %9 = tail call i32 @BIO_free(ptr noundef %8) #8
  store ptr null, ptr %7, align 8, !tbaa !100
  %10 = getelementptr inbounds nuw i8, ptr %0, i64 432
  %11 = load ptr, ptr %10, align 8, !tbaa !101
  tail call void @EVP_MD_CTX_free(ptr noundef %11) #8
  store ptr null, ptr %10, align 8, !tbaa !101
  store ptr %3, ptr %7, align 8, !tbaa !100
  %12 = tail call i64 @BIO_ctrl(ptr noundef nonnull %3, i32 noundef 9, i64 noundef 1, ptr noundef null) #8
  br label %13

13:                                               ; preds = %6, %5
  %.0 = phi i32 [ 0, %5 ], [ 1, %6 ]
  ret i32 %.0
}